target datalayout = "e-m:e-p270:32:32-p271:32:32-p272:64:64-i64:64-i128:128-f80:128-n8:16:32:64-S128"
target triple = "x86_64-pc-linux-gnu"

%struct.st_callout_name_key = type { ptr, i32, ptr, ptr }

; Function Attrs: nounwind uwtable
define internal i32 @callout_name_table_cmp(i64 noundef %0, i64 noundef %1) #0 {
  %3 = alloca i32, align 4
  %4 = alloca i64, align 8
  %5 = alloca i64, align 8
  %6 = alloca ptr, align 8
  %7 = alloca ptr, align 8
  %8 = alloca ptr, align 8
  %9 = alloca ptr, align 8
  %10 = alloca i32, align 4
  %11 = alloca i32, align 4
  store i64 %0, ptr %4, align 8, !tbaa !15
  store i64 %1, ptr %5, align 8, !tbaa !15
  call void @llvm.lifetime.start.p0(i64 8, ptr %6) #8
  %12 = load i64, ptr %4, align 8, !tbaa !15
  %13 = inttoptr i64 %12 to ptr
  store ptr %13, ptr %6, align 8, !tbaa !9
  call void @llvm.lifetime.start.p0(i64 8, ptr %7) #8
  %14 = load i64, ptr %5, align 8, !tbaa !15
  %15 = inttoptr i64 %14 to ptr
  store ptr %15, ptr %7, align 8, !tbaa !9
  call void @llvm.lifetime.start.p0(i64 8, ptr %8) #8
  call void @llvm.lifetime.start.p0(i64 8, ptr %9) #8
  call void @llvm.lifetime.start.p0(i64 4, ptr %10) #8
  %16 = load ptr, ptr %6, align 8, !tbaa !9
  %17 = getelementptr inbounds nuw %struct.st_callout_name_key, ptr %16, i32 0, i32 0
  %18 = load ptr, ptr %17, align 8, !tbaa !24
  %19 = load ptr, ptr %7, align 8, !tbaa !9
  %20 = getelementptr inbounds nuw %struct.st_callout_name_key, ptr %19, i32 0, i32 0
  %21 = load ptr, ptr %20, align 8, !tbaa !24
  %22 = icmp ne ptr %18, %21
  br i1 %22, label %23, label %24

23:                                               ; preds = %2
  store i32 1, ptr %3, align 4
  store i32 1, ptr %11, align 4
  br label %85

24:                                               ; preds = %2
  %25 = load ptr, ptr %6, align 8, !tbaa !9
  %26 = getelementptr inbounds nuw %struct.st_callout_name_key, ptr %25, i32 0, i32 1
  %27 = load i32, ptr %26, align 8, !tbaa !27
  %28 = load ptr, ptr %7, align 8, !tbaa !9
  %29 = getelementptr inbounds nuw %struct.st_callout_name_key, ptr %28, i32 0, i32 1
  %30 = load i32, ptr %29, align 8, !tbaa !27
  %31 = icmp ne i32 %27, %30
  br i1 %31, label %32, label %33

32:                                               ; preds = %24
  store i32 1, ptr %3, align 4
  store i32 1, ptr %11, align 4
  br label %85

33:                                               ; preds = %24
  %34 = load ptr, ptr %6, align 8, !tbaa !9
  %35 = getelementptr inbounds nuw %struct.st_callout_name_key, ptr %34, i32 0, i32 3
  %36 = load ptr, ptr %35, align 8, !tbaa !28
  %37 = load ptr, ptr %6, align 8, !tbaa !9
  %38 = getelementptr inbounds nuw %struct.st_callout_name_key, ptr %37, i32 0, i32 2
  %39 = load ptr, ptr %38, align 8, !tbaa !29
  %40 = ptrtoint ptr %36 to i64
  %41 = ptrtoint ptr %39 to i64
  %42 = sub i64 %40, %41
  %43 = load ptr, ptr %7, align 8, !tbaa !9
  %44 = getelementptr inbounds nuw %struct.st_callout_name_key, ptr %43, i32 0, i32 3
  %45 = load ptr, ptr %44, align 8, !tbaa !28
  %46 = load ptr, ptr %7, align 8, !tbaa !9
  %47 = getelementptr inbounds nuw %struct.st_callout_name_key, ptr %46, i32 0, i32 2
  %48 = load ptr, ptr %47, align 8, !tbaa !29
  %49 = ptrtoint ptr %45 to i64
  %50 = ptrtoint ptr %48 to i64
  %51 = sub i64 %49, %50
  %52 = icmp ne i64 %42, %51
  br i1 %52, label %53, label %54

53:                                               ; preds = %33
  store i32 1, ptr %3, align 4
  store i32 1, ptr %11, align 4
  br label %85

54:                                               ; preds = %33
  %55 = load ptr, ptr %6, align 8, !tbaa !9
  %56 = getelementptr inbounds nuw %struct.st_callout_name_key, ptr %55, i32 0, i32 2
  %57 = load ptr, ptr %56, align 8, !tbaa !29
  store ptr %57, ptr %8, align 8, !tbaa !4
  %58 = load ptr, ptr %7, align 8, !tbaa !9
  %59 = getelementptr inbounds nuw %struct.st_callout_name_key, ptr %58, i32 0, i32 2
  %60 = load ptr, ptr %59, align 8, !tbaa !29
  store ptr %60, ptr %9, align 8, !tbaa !4
  br label %61

61:                                               ; preds = %79, %54
  %62 = load ptr, ptr %8, align 8, !tbaa !4
  %63 = load ptr, ptr %6, align 8, !tbaa !9
  %64 = getelementptr inbounds nuw %struct.st_callout_name_key, ptr %63, i32 0, i32 3
  %65 = load ptr, ptr %64, align 8, !tbaa !28
  %66 = icmp ult ptr %62, %65
  br i1 %66, label %67, label %84

67:                                               ; preds = %61
  %68 = load ptr, ptr %8, align 8, !tbaa !4
  %69 = load i8, ptr %68, align 1, !tbaa !12
  %70 = zext i8 %69 to i32
  %71 = load ptr, ptr %9, align 8, !tbaa !4
  %72 = load i8, ptr %71, align 1, !tbaa !12
  %73 = zext i8 %72 to i32
  %74 = sub nsw i32 %70, %73
  store i32 %74, ptr %10, align 4, !tbaa !10
  %75 = load i32, ptr %10, align 4, !tbaa !10
  %76 = icmp ne i32 %75, 0
  br i1 %76, label %77, label %79

77:                                               ; preds = %67
  %78 = load i32, ptr %10, align 4, !tbaa !10
  store i32 %78, ptr %3, align 4
  store i32 1, ptr %11, align 4
  br label %85

79:                                               ; preds = %67
  %80 = load ptr, ptr %8, align 8, !tbaa !4
  %81 = getelementptr inbounds nuw i8, ptr %80, i32 1
  store ptr %81, ptr %8, align 8, !tbaa !4
  %82 = load ptr, ptr %9, align 8, !tbaa !4
  %83 = getelementptr inbounds nuw i8, ptr %82, i32 1
  store ptr %83, ptr %9, align 8, !tbaa !4
  br label %61, !llvm.loop !30

84:                                               ; preds = %61
  store i32 0, ptr %3, align 4
  store i32 1, ptr %11, align 4
  br label %85

85:                                               ; preds = %84, %77, %53, %32, %23
  call void @llvm.lifetime.end.p0(i64 4, ptr %10) #8
  call void @llvm.lifetime.end.p0(i64 8, ptr %9) #8
  call void @llvm.lifetime.end.p0(i64 8, ptr %8) #8
  call void @llvm.lifetime.end.p0(i64 8, ptr %7) #8
  call void @llvm.lifetime.end.p0(i64 8, ptr %6) #8
  %86 = load i32, ptr %3, align 4
  ret i32 %86
}