; Function Attrs: nofree norecurse nosync nounwind memory(read, inaccessiblemem: none) uwtable
define internal range(i32 -255, 256) i32 @callout_name_table_cmp(i64 noundef %0, i64 noundef %1) #8 {
  %3 = inttoptr i64 %0 to ptr
  %4 = inttoptr i64 %1 to ptr
  %5 = load ptr, ptr %3, align 8, !tbaa !19
  %6 = load ptr, ptr %4, align 8, !tbaa !19
  %.not = icmp eq ptr %5, %6
  br i1 %.not, label %7, label %.loopexit

7:                                                ; preds = %2
  %8 = getelementptr inbounds nuw i8, ptr %3, i64 8
  %9 = load i32, ptr %8, align 8, !tbaa !22
  %10 = getelementptr inbounds nuw i8, ptr %4, i64 8
  %11 = load i32, ptr %10, align 8, !tbaa !22
  %.not23 = icmp eq i32 %9, %11
  br i1 %.not23, label %12, label %.loopexit

12:                                               ; preds = %7
  %13 = getelementptr inbounds nuw i8, ptr %3, i64 24
  %14 = load ptr, ptr %13, align 8, !tbaa !23
  %15 = getelementptr inbounds nuw i8, ptr %3, i64 16
  %16 = load ptr, ptr %15, align 8, !tbaa !24
  %17 = ptrtoint ptr %14 to i64
  %18 = ptrtoint ptr %16 to i64
  %19 = sub i64 %17, %18
  %20 = getelementptr inbounds nuw i8, ptr %4, i64 24
  %21 = load ptr, ptr %20, align 8, !tbaa !23
  %22 = getelementptr inbounds nuw i8, ptr %4, i64 16
  %23 = load ptr, ptr %22, align 8, !tbaa !24
  %24 = ptrtoint ptr %21 to i64
  %25 = ptrtoint ptr %23 to i64
  %26 = sub i64 %24, %25
  %.not24 = icmp eq i64 %19, %26
  br i1 %.not24, label %.preheader, label %.loopexit

.preheader:                                       ; preds = %12
  %27 = icmp ult ptr %16, %14
  br i1 %27, label %.lr.ph, label %.loopexit

.lr.ph:                                           ; preds = %.preheader, %33
  %.02027 = phi ptr [ %35, %33 ], [ %23, %.preheader ]
  %.02126 = phi ptr [ %34, %33 ], [ %16, %.preheader ]
  %28 = load i8, ptr %.02126, align 1, !tbaa !10
  %29 = zext i8 %28 to i32
  %30 = load i8, ptr %.02027, align 1, !tbaa !10
  %31 = zext i8 %30 to i32
  %32 = sub nsw i32 %29, %31
  %.not25 = icmp eq i32 %32, 0
  br i1 %.not25, label %33, label %.loopexit

33:                                               ; preds = %.lr.ph
  %34 = getelementptr inbounds nuw i8, ptr %.02126, i64 1
  %35 = getelementptr inbounds nuw i8, ptr %.02027, i64 1
  %exitcond.not = icmp eq ptr %34, %14
  br i1 %exitcond.not, label %.loopexit, label %.lr.ph, !llvm.loop !25

.loopexit:                                        ; preds = %.lr.ph, %33, %.preheader, %12, %7, %2
  %.0 = phi i32 [ 1, %2 ], [ 1, %7 ], [ 1, %12 ], [ 0, %.preheader ], [ %32, %.lr.ph ], [ 0, %33 ]
  ret i32 %.0
}